target datalayout = "e-m:e-p270:32:32-p271:32:32-p272:64:64-i64:64-i128:128-f80:128-n8:16:32:64-S128"
target triple = "x86_64-pc-linux-gnu"

%struct.RString = type { %struct.RBasic, i64, %union.anon }
%struct.RBasic = type { i64, i64 }
%union.anon = type { %struct.anon }
%struct.anon = type { ptr, %union.anon.0 }
%union.anon.0 = type { i64 }

@id_input = internal global i64 0, align 8
@.str.161 = private unnamed_addr constant [9 x i8] c", input=\00", align 1
@.str.162 = private unnamed_addr constant [2 x i8] c">\00", align 1

; Function Attrs: inlinehint nounwind sspstrong uwtable
define internal i64 @rbimpl_strlen(ptr noundef nonnull %0) #3 {
  %2 = alloca ptr, align 8
  store ptr %0, ptr %2, align 8, !tbaa !19
  %3 = load ptr, ptr %2, align 8, !tbaa !19
  %4 = call i64 @strlen(ptr noundef %3) #25
  ret i64 %4
}

; Function Attrs: inlinehint nounwind sspstrong uwtable
define internal i64 @rbimpl_str_cat_cstr(i64 noundef %0, ptr noundef nonnull %1) #3 {
  %3 = alloca i64, align 8
  %4 = alloca ptr, align 8
  %5 = alloca i64, align 8
  store i64 %0, ptr %3, align 8, !tbaa !6
  store ptr %1, ptr %4, align 8, !tbaa !19
  call void @llvm.lifetime.start.p0(i64 8, ptr %5) #23
  %6 = load ptr, ptr %4, align 8, !tbaa !19
  %7 = call i64 @rbimpl_strlen(ptr noundef %6)
  store i64 %7, ptr %5, align 8, !tbaa !6
  %8 = load i64, ptr %3, align 8, !tbaa !6
  %9 = load ptr, ptr %4, align 8, !tbaa !19
  %10 = load i64, ptr %5, align 8, !tbaa !6
  %11 = call i64 @rb_str_cat(i64 noundef %8, ptr noundef %9, i64 noundef %10)
  call void @llvm.lifetime.end.p0(i64 8, ptr %5) #23
  ret i64 %11
}

; Function Attrs: inlinehint nounwind sspstrong willreturn memory(read) uwtable
define internal i64 @RSTRING_LEN(i64 noundef %0) #6 {
  %2 = alloca i64, align 8
  store i64 %0, ptr %2, align 8, !tbaa !6
  %3 = load i64, ptr %2, align 8, !tbaa !6
  %4 = inttoptr i64 %3 to ptr
  %5 = getelementptr inbounds nuw %struct.RString, ptr %4, i32 0, i32 1
  %6 = load i64, ptr %5, align 8, !tbaa !88
  ret i64 %6
}

; Function Attrs: inlinehint nounwind sspstrong willreturn memory(none) uwtable
define internal zeroext i1 @RB_NIL_P(i64 noundef %0) #5 {
  %2 = alloca i64, align 8
  store i64 %0, ptr %2, align 8, !tbaa !6
  %3 = load i64, ptr %2, align 8, !tbaa !6
  %4 = icmp eq i64 %3, 4
  ret i1 %4
}

; Function Attrs: nounwind sspstrong uwtable
define internal i64 @gzfile_error_inspect(i64 noundef %0) #0 {
  %2 = alloca i64, align 8
  %3 = alloca i64, align 8
  %4 = alloca i64, align 8
  store i64 %0, ptr %2, align 8, !tbaa !6
  call void @llvm.lifetime.start.p0(i64 8, ptr %3) #23
  %5 = call i64 @rb_call_super(i32 noundef 0, ptr noundef null)
  store i64 %5, ptr %3, align 8, !tbaa !6
  call void @llvm.lifetime.start.p0(i64 8, ptr %4) #23
  %6 = load i64, ptr %2, align 8, !tbaa !6
  %7 = load i64, ptr @id_input, align 8, !tbaa !6
  %8 = call i64 @rb_attr_get(i64 noundef %6, i64 noundef %7)
  store i64 %8, ptr %4, align 8, !tbaa !6
  %9 = load i64, ptr %4, align 8, !tbaa !6
  %10 = call zeroext i1 @RB_NIL_P(i64 noundef %9) #24
  br i1 %10, label %25, label %11

11:                                               ; preds = %1
  %12 = load i64, ptr %3, align 8, !tbaa !6
  %13 = load i64, ptr %3, align 8, !tbaa !6
  %14 = call i64 @RSTRING_LEN(i64 noundef %13) #25
  %15 = sub nsw i64 %14, 1
  %16 = call i64 @rb_str_resize(i64 noundef %12, i64 noundef %15)
  %17 = load i64, ptr %3, align 8, !tbaa !6
  %18 = call i64 @rbimpl_str_cat_cstr(i64 noundef %17, ptr noundef @.str.161)
  %19 = load i64, ptr %3, align 8, !tbaa !6
  %20 = load i64, ptr %4, align 8, !tbaa !6
  %21 = call i64 @rb_str_inspect(i64 noundef %20)
  %22 = call i64 @rb_str_append(i64 noundef %19, i64 noundef %21)
  %23 = load i64, ptr %3, align 8, !tbaa !6
  %24 = call i64 @rbimpl_str_cat_cstr(i64 noundef %23, ptr noundef @.str.162)
  br label %25

25:                                               ; preds = %11, %1
  %26 = load i64, ptr %3, align 8, !tbaa !6
  call void @llvm.lifetime.end.p0(i64 8, ptr %4) #23
  call void @llvm.lifetime.end.p0(i64 8, ptr %3) #23
  ret i64 %26
}