; Function Attrs: nounwind sspstrong uwtable
define internal i64 @gzfile_error_inspect(i64 noundef %0) #0 {
  %2 = tail call i64 @rb_call_super(i32 noundef 0, ptr noundef null) #18
  %3 = load i64, ptr @id_input, align 8, !tbaa !6
  %4 = tail call i64 @rb_attr_get(i64 noundef %0, i64 noundef %3) #18
  %5 = icmp eq i64 %4, 4
  br i1 %5, label %16, label %6

6:                                                ; preds = %1
  %7 = inttoptr i64 %2 to ptr
  %8 = getelementptr inbounds nuw i8, ptr %7, i64 16
  %9 = load i64, ptr %8, align 8, !tbaa !21
  %10 = add nsw i64 %9, -1
  %11 = tail call i64 @rb_str_resize(i64 noundef %2, i64 noundef %10) #18
  %12 = tail call i64 @rb_str_cat(i64 noundef %2, ptr noundef nonnull @.str.161, i64 noundef 8) #18
  %13 = tail call i64 @rb_str_inspect(i64 noundef %4) #18
  %14 = tail call i64 @rb_str_append(i64 noundef %2, i64 noundef %13) #18
  %15 = tail call i64 @rb_str_cat(i64 noundef %2, ptr noundef nonnull @.str.162, i64 noundef 1) #18
  br label %16

16:                                               ; preds = %6, %1
  ret i64 %2
}